target datalayout = "e-m:e-p270:32:32-p271:32:32-p272:64:64-i64:64-i128:128-f80:128-n8:16:32:64-S128"
target triple = "x86_64-unknown-linux-gnu"

%"class.std::basic_istream" = type { ptr, i64, %"class.std::basic_ios" }
%"class.std::basic_ios" = type { %"class.std::ios_base", ptr, i8, i8, ptr, ptr, ptr, ptr }
%"class.std::ios_base" = type { ptr, i64, i64, i32, i32, i32, ptr, %"struct.std::ios_base::_Words", [8 x %"struct.std::ios_base::_Words"], i32, ptr, %"class.std::locale" }
%"struct.std::ios_base::_Words" = type { ptr, i64 }
%"class.std::locale" = type { ptr }
%"class.std::basic_ostream" = type { ptr, %"class.std::basic_ios" }
%class.veloxtpFlexLexer = type <{ %class.FlexLexer.base, i32, i32, [4 x i8], ptr, %"class.std::basic_istream", %"class.std::basic_ostream", i8, [3 x i8], i32, ptr, i32, i32, i32, [4 x i8], i64, i64, ptr, i32, [4 x i8], ptr, ptr, ptr, ptr, ptr, i32, i32, i32, i32, i32, i32, i32, [4 x i8] }>
%class.FlexLexer.base = type <{ ptr, ptr, i32, i32, i32 }>
%class.FlexLexer = type <{ ptr, ptr, i32, i32, i32, [4 x i8] }>
%struct.yy_buffer_state = type { ptr, ptr, ptr, i32, i32, i32, i32, i32, i32, i32, i32, i32 }

; Function Attrs: mustprogress uwtable
define void @_ZN16veloxtpFlexLexer20yy_load_buffer_stateEv(ptr noundef nonnull align 8 dereferenceable(732) %this) #5 align 2 {
entry:
  %this.addr = alloca ptr, align 8
  store ptr %this, ptr %this.addr, align 8
  %this1 = load ptr, ptr %this.addr, align 8
  %yy_buffer_stack = getelementptr inbounds %class.veloxtpFlexLexer, ptr %this1, i32 0, i32 17
  %0 = load ptr, ptr %yy_buffer_stack, align 8
  %yy_buffer_stack_top = getelementptr inbounds %class.veloxtpFlexLexer, ptr %this1, i32 0, i32 15
  %1 = load i64, ptr %yy_buffer_stack_top, align 8
  %arrayidx = getelementptr inbounds ptr, ptr %0, i64 %1
  %2 = load ptr, ptr %arrayidx, align 8
  %yy_n_chars = getelementptr inbounds %struct.yy_buffer_state, ptr %2, i32 0, i32 4
  %3 = load i32, ptr %yy_n_chars, align 4
  %yy_n_chars2 = getelementptr inbounds %class.veloxtpFlexLexer, ptr %this1, i32 0, i32 9
  store i32 %3, ptr %yy_n_chars2, align 4
  %yy_buffer_stack3 = getelementptr inbounds %class.veloxtpFlexLexer, ptr %this1, i32 0, i32 17
  %4 = load ptr, ptr %yy_buffer_stack3, align 8
  %yy_buffer_stack_top4 = getelementptr inbounds %class.veloxtpFlexLexer, ptr %this1, i32 0, i32 15
  %5 = load i64, ptr %yy_buffer_stack_top4, align 8
  %arrayidx5 = getelementptr inbounds ptr, ptr %4, i64 %5
  %6 = load ptr, ptr %arrayidx5, align 8
  %yy_buf_pos = getelementptr inbounds %struct.yy_buffer_state, ptr %6, i32 0, i32 2
  %7 = load ptr, ptr %yy_buf_pos, align 8
  %yy_c_buf_p = getelementptr inbounds %class.veloxtpFlexLexer, ptr %this1, i32 0, i32 10
  store ptr %7, ptr %yy_c_buf_p, align 8
  %yytext = getelementptr inbounds %class.FlexLexer, ptr %this1, i32 0, i32 1
  store ptr %7, ptr %yytext, align 8
  %yyin = getelementptr inbounds %class.veloxtpFlexLexer, ptr %this1, i32 0, i32 5
  %vtable = load ptr, ptr %yyin, align 8
  %vbase.offset.ptr = getelementptr i8, ptr %vtable, i64 -24
  %vbase.offset = load i64, ptr %vbase.offset.ptr, align 8
  %add.ptr = getelementptr inbounds i8, ptr %yyin, i64 %vbase.offset
  %yy_buffer_stack6 = getelementptr inbounds %class.veloxtpFlexLexer, ptr %this1, i32 0, i32 17
  %8 = load ptr, ptr %yy_buffer_stack6, align 8
  %yy_buffer_stack_top7 = getelementptr inbounds %class.veloxtpFlexLexer, ptr %this1, i32 0, i32 15
  %9 = load i64, ptr %yy_buffer_stack_top7, align 8
  %arrayidx8 = getelementptr inbounds ptr, ptr %8, i64 %9
  %10 = load ptr, ptr %arrayidx8, align 8
  %yy_input_file = getelementptr inbounds %struct.yy_buffer_state, ptr %10, i32 0, i32 0
  %11 = load ptr, ptr %yy_input_file, align 8
  %call = call noundef ptr @_ZNSt9basic_iosIcSt11char_traitsIcEE5rdbufEPSt15basic_streambufIcS1_E(ptr noundef nonnull align 8 dereferenceable(264) %add.ptr, ptr noundef %11)
  %yy_c_buf_p9 = getelementptr inbounds %class.veloxtpFlexLexer, ptr %this1, i32 0, i32 10
  %12 = load ptr, ptr %yy_c_buf_p9, align 8
  %13 = load i8, ptr %12, align 1
  %yy_hold_char = getelementptr inbounds %class.veloxtpFlexLexer, ptr %this1, i32 0, i32 7
  store i8 %13, ptr %yy_hold_char, align 8
  ret void
}

; Function Attrs: mustprogress uwtable
define void @_ZN16veloxtpFlexLexer15yy_flush_bufferEP15yy_buffer_state(ptr noundef nonnull align 8 dereferenceable(732) %this, ptr noundef %b) #5 align 2 {
entry:
  %this.addr = alloca ptr, align 8
  %b.addr = alloca ptr, align 8
  store ptr %this, ptr %this.addr, align 8
  store ptr %b, ptr %b.addr, align 8
  %this1 = load ptr, ptr %this.addr, align 8
  %0 = load ptr, ptr %b.addr, align 8
  %tobool = icmp ne ptr %0, null
  br i1 %tobool, label %if.end, label %if.then

if.then:                                          ; preds = %entry
  br label %if.end10

if.end:                                           ; preds = %entry
  %1 = load ptr, ptr %b.addr, align 8
  %yy_n_chars = getelementptr inbounds %struct.yy_buffer_state, ptr %1, i32 0, i32 4
  store i32 0, ptr %yy_n_chars, align 4
  %2 = load ptr, ptr %b.addr, align 8
  %yy_ch_buf = getelementptr inbounds %struct.yy_buffer_state, ptr %2, i32 0, i32 1
  %3 = load ptr, ptr %yy_ch_buf, align 8
  %arrayidx = getelementptr inbounds i8, ptr %3, i64 0
  store i8 0, ptr %arrayidx, align 1
  %4 = load ptr, ptr %b.addr, align 8
  %yy_ch_buf2 = getelementptr inbounds %struct.yy_buffer_state, ptr %4, i32 0, i32 1
  %5 = load ptr, ptr %yy_ch_buf2, align 8
  %arrayidx3 = getelementptr inbounds i8, ptr %5, i64 1
  store i8 0, ptr %arrayidx3, align 1
  %6 = load ptr, ptr %b.addr, align 8
  %yy_ch_buf4 = getelementptr inbounds %struct.yy_buffer_state, ptr %6, i32 0, i32 1
  %7 = load ptr, ptr %yy_ch_buf4, align 8
  %arrayidx5 = getelementptr inbounds i8, ptr %7, i64 0
  %8 = load ptr, ptr %b.addr, align 8
  %yy_buf_pos = getelementptr inbounds %struct.yy_buffer_state, ptr %8, i32 0, i32 2
  store ptr %arrayidx5, ptr %yy_buf_pos, align 8
  %9 = load ptr, ptr %b.addr, align 8
  %yy_at_bol = getelementptr inbounds %struct.yy_buffer_state, ptr %9, i32 0, i32 7
  store i32 1, ptr %yy_at_bol, align 8
  %10 = load ptr, ptr %b.addr, align 8
  %yy_buffer_status = getelementptr inbounds %struct.yy_buffer_state, ptr %10, i32 0, i32 11
  store i32 0, ptr %yy_buffer_status, align 8
  %11 = load ptr, ptr %b.addr, align 8
  %yy_buffer_stack = getelementptr inbounds %class.veloxtpFlexLexer, ptr %this1, i32 0, i32 17
  %12 = load ptr, ptr %yy_buffer_stack, align 8
  %tobool6 = icmp ne ptr %12, null
  br i1 %tobool6, label %cond.true, label %cond.false

cond.true:                                        ; preds = %if.end
  %yy_buffer_stack7 = getelementptr inbounds %class.veloxtpFlexLexer, ptr %this1, i32 0, i32 17
  %13 = load ptr, ptr %yy_buffer_stack7, align 8
  %yy_buffer_stack_top = getelementptr inbounds %class.veloxtpFlexLexer, ptr %this1, i32 0, i32 15
  %14 = load i64, ptr %yy_buffer_stack_top, align 8
  %arrayidx8 = getelementptr inbounds ptr, ptr %13, i64 %14
  %15 = load ptr, ptr %arrayidx8, align 8
  br label %cond.end

cond.false:                                       ; preds = %if.end
  br label %cond.end

cond.end:                                         ; preds = %cond.false, %cond.true
  %cond = phi ptr [ %15, %cond.true ], [ null, %cond.false ]
  %cmp = icmp eq ptr %11, %cond
  br i1 %cmp, label %if.then9, label %if.end10

if.then9:                                         ; preds = %cond.end
  call void @_ZN16veloxtpFlexLexer20yy_load_buffer_stateEv(ptr noundef nonnull align 8 dereferenceable(732) %this1)
  br label %if.end10

if.end10:                                         ; preds = %if.then9, %cond.end, %if.then
  ret void
}

; Function Attrs: mustprogress uwtable
define void @_ZN16veloxtpFlexLexer14yy_init_bufferEP15yy_buffer_stateRSi(ptr noundef nonnull align 8 dereferenceable(732) %this, ptr noundef %b, ptr noundef nonnull align 8 dereferenceable(16) %file) #5 align 2 {
entry:
  %this.addr = alloca ptr, align 8
  %b.addr = alloca ptr, align 8
  %file.addr = alloca ptr, align 8
  %oerrno = alloca i32, align 4
  store ptr %this, ptr %this.addr, align 8
  store ptr %b, ptr %b.addr, align 8
  store ptr %file, ptr %file.addr, align 8
  %this1 = load ptr, ptr %this.addr, align 8
  %call = call ptr @__errno_location() #23
  %0 = load i32, ptr %call, align 4
  store i32 %0, ptr %oerrno, align 4
  %1 = load ptr, ptr %b.addr, align 8
  call void @_ZN16veloxtpFlexLexer15yy_flush_bufferEP15yy_buffer_state(ptr noundef nonnull align 8 dereferenceable(732) %this1, ptr noundef %1)
  %2 = load ptr, ptr %file.addr, align 8
  %vtable = load ptr, ptr %2, align 8
  %vbase.offset.ptr = getelementptr i8, ptr %vtable, i64 -24
  %vbase.offset = load i64, ptr %vbase.offset.ptr, align 8
  %add.ptr = getelementptr inbounds i8, ptr %2, i64 %vbase.offset
  %call2 = call noundef ptr @_ZNKSt9basic_iosIcSt11char_traitsIcEE5rdbufEv(ptr noundef nonnull align 8 dereferenceable(264) %add.ptr)
  %3 = load ptr, ptr %b.addr, align 8
  %yy_input_file = getelementptr inbounds %struct.yy_buffer_state, ptr %3, i32 0, i32 0
  store ptr %call2, ptr %yy_input_file, align 8
  %4 = load ptr, ptr %b.addr, align 8
  %yy_fill_buffer = getelementptr inbounds %struct.yy_buffer_state, ptr %4, i32 0, i32 10
  store i32 1, ptr %yy_fill_buffer, align 4
  %5 = load ptr, ptr %b.addr, align 8
  %yy_buffer_stack = getelementptr inbounds %class.veloxtpFlexLexer, ptr %this1, i32 0, i32 17
  %6 = load ptr, ptr %yy_buffer_stack, align 8
  %tobool = icmp ne ptr %6, null
  br i1 %tobool, label %cond.true, label %cond.false

cond.true:                                        ; preds = %entry
  %yy_buffer_stack3 = getelementptr inbounds %class.veloxtpFlexLexer, ptr %this1, i32 0, i32 17
  %7 = load ptr, ptr %yy_buffer_stack3, align 8
  %yy_buffer_stack_top = getelementptr inbounds %class.veloxtpFlexLexer, ptr %this1, i32 0, i32 15
  %8 = load i64, ptr %yy_buffer_stack_top, align 8
  %arrayidx = getelementptr inbounds ptr, ptr %7, i64 %8
  %9 = load ptr, ptr %arrayidx, align 8
  br label %cond.end

cond.false:                                       ; preds = %entry
  br label %cond.end

cond.end:                                         ; preds = %cond.false, %cond.true
  %cond = phi ptr [ %9, %cond.true ], [ null, %cond.false ]
  %cmp = icmp ne ptr %5, %cond
  br i1 %cmp, label %if.then, label %if.end

if.then:                                          ; preds = %cond.end
  %10 = load ptr, ptr %b.addr, align 8
  %yy_bs_lineno = getelementptr inbounds %struct.yy_buffer_state, ptr %10, i32 0, i32 8
  store i32 1, ptr %yy_bs_lineno, align 4
  %11 = load ptr, ptr %b.addr, align 8
  %yy_bs_column = getelementptr inbounds %struct.yy_buffer_state, ptr %11, i32 0, i32 9
  store i32 0, ptr %yy_bs_column, align 8
  br label %if.end

if.end:                                           ; preds = %if.then, %cond.end
  %12 = load ptr, ptr %b.addr, align 8
  %yy_is_interactive = getelementptr inbounds %struct.yy_buffer_state, ptr %12, i32 0, i32 6
  store i32 0, ptr %yy_is_interactive, align 4
  %13 = load i32, ptr %oerrno, align 4
  %call4 = call ptr @__errno_location() #23
  store i32 %13, ptr %call4, align 4
  ret void
}