; Function Attrs: mustprogress uwtable
define void @_ZN16veloxtpFlexLexer14yy_init_bufferEP15yy_buffer_stateRSi(ptr noundef nonnull align 8 dereferenceable(732) %this, ptr noundef %b, ptr noundef nonnull align 8 dereferenceable(16) %file) local_unnamed_addr #4 align 2 {
entry:
  %call = tail call ptr @__errno_location() #40
  %0 = load i32, ptr %call, align 4
  %tobool.not.i = icmp eq ptr %b, null
  br i1 %tobool.not.i, label %_ZN16veloxtpFlexLexer15yy_flush_bufferEP15yy_buffer_state.exit, label %if.end.i

if.end.i:                                         ; preds = %entry
  %yy_n_chars.i = getelementptr inbounds i8, ptr %b, i64 28
  store i32 0, ptr %yy_n_chars.i, align 4
  %yy_ch_buf.i = getelementptr inbounds i8, ptr %b, i64 8
  %1 = load ptr, ptr %yy_ch_buf.i, align 8
  store i8 0, ptr %1, align 1
  %2 = load ptr, ptr %yy_ch_buf.i, align 8
  %arrayidx3.i = getelementptr inbounds i8, ptr %2, i64 1
  store i8 0, ptr %arrayidx3.i, align 1
  %3 = load ptr, ptr %yy_ch_buf.i, align 8
  %yy_buf_pos.i = getelementptr inbounds i8, ptr %b, i64 16
  store ptr %3, ptr %yy_buf_pos.i, align 8
  %yy_at_bol.i = getelementptr inbounds i8, ptr %b, i64 40
  store i32 1, ptr %yy_at_bol.i, align 8
  %yy_buffer_status.i = getelementptr inbounds i8, ptr %b, i64 56
  store i32 0, ptr %yy_buffer_status.i, align 8
  %yy_buffer_stack.i = getelementptr inbounds i8, ptr %this, i64 648
  %4 = load ptr, ptr %yy_buffer_stack.i, align 8
  %tobool6.not.i = icmp eq ptr %4, null
  br i1 %tobool6.not.i, label %cond.end.i, label %cond.true.i

cond.true.i:                                      ; preds = %if.end.i
  %yy_buffer_stack_top.i = getelementptr inbounds i8, ptr %this, i64 632
  %5 = load i64, ptr %yy_buffer_stack_top.i, align 8
  %arrayidx8.i = getelementptr inbounds ptr, ptr %4, i64 %5
  %6 = load ptr, ptr %arrayidx8.i, align 8
  br label %cond.end.i

cond.end.i:                                       ; preds = %cond.true.i, %if.end.i
  %cond.i = phi ptr [ %6, %cond.true.i ], [ null, %if.end.i ]
  %cmp.i = icmp eq ptr %cond.i, %b
  br i1 %cmp.i, label %if.then9.i, label %_ZN16veloxtpFlexLexer15yy_flush_bufferEP15yy_buffer_state.exit

if.then9.i:                                       ; preds = %cond.end.i
  %yy_buffer_stack_top.i.i = getelementptr inbounds i8, ptr %this, i64 632
  %7 = load i64, ptr %yy_buffer_stack_top.i.i, align 8
  %arrayidx.i.i = getelementptr inbounds ptr, ptr %4, i64 %7
  %8 = load ptr, ptr %arrayidx.i.i, align 8
  %yy_n_chars.i.i = getelementptr inbounds i8, ptr %8, i64 28
  %9 = load i32, ptr %yy_n_chars.i.i, align 4
  %yy_n_chars2.i.i = getelementptr inbounds i8, ptr %this, i64 604
  store i32 %9, ptr %yy_n_chars2.i.i, align 4
  %10 = load ptr, ptr %arrayidx.i.i, align 8
  %yy_buf_pos.i.i = getelementptr inbounds i8, ptr %10, i64 16
  %11 = load ptr, ptr %yy_buf_pos.i.i, align 8
  %yy_c_buf_p.i.i = getelementptr inbounds i8, ptr %this, i64 608
  store ptr %11, ptr %yy_c_buf_p.i.i, align 8
  %yytext.i.i = getelementptr inbounds i8, ptr %this, i64 8
  store ptr %11, ptr %yytext.i.i, align 8
  %yyin.i.i = getelementptr inbounds i8, ptr %this, i64 48
  %vtable.i.i = load ptr, ptr %yyin.i.i, align 8
  %vbase.offset.ptr.i.i = getelementptr i8, ptr %vtable.i.i, i64 -24
  %vbase.offset.i.i = load i64, ptr %vbase.offset.ptr.i.i, align 8
  %add.ptr.i.i = getelementptr inbounds i8, ptr %yyin.i.i, i64 %vbase.offset.i.i
  %12 = load ptr, ptr %arrayidx.i.i, align 8
  %13 = load ptr, ptr %12, align 8
  %call.i.i = tail call noundef ptr @_ZNSt9basic_iosIcSt11char_traitsIcEE5rdbufEPSt15basic_streambufIcS1_E(ptr noundef nonnull align 8 dereferenceable(264) %add.ptr.i.i, ptr noundef %13)
  %14 = load ptr, ptr %yy_c_buf_p.i.i, align 8
  %15 = load i8, ptr %14, align 1
  %yy_hold_char.i.i = getelementptr inbounds i8, ptr %this, i64 600
  store i8 %15, ptr %yy_hold_char.i.i, align 8
  br label %_ZN16veloxtpFlexLexer15yy_flush_bufferEP15yy_buffer_state.exit

_ZN16veloxtpFlexLexer15yy_flush_bufferEP15yy_buffer_state.exit: ; preds = %entry, %cond.end.i, %if.then9.i
  %vtable = load ptr, ptr %file, align 8
  %vbase.offset.ptr = getelementptr i8, ptr %vtable, i64 -24
  %vbase.offset = load i64, ptr %vbase.offset.ptr, align 8
  %add.ptr = getelementptr inbounds i8, ptr %file, i64 %vbase.offset
  %call2 = tail call noundef ptr @_ZNKSt9basic_iosIcSt11char_traitsIcEE5rdbufEv(ptr noundef nonnull align 8 dereferenceable(264) %add.ptr)
  store ptr %call2, ptr %b, align 8
  %yy_fill_buffer = getelementptr inbounds i8, ptr %b, i64 52
  store i32 1, ptr %yy_fill_buffer, align 4
  %yy_buffer_stack = getelementptr inbounds i8, ptr %this, i64 648
  %16 = load ptr, ptr %yy_buffer_stack, align 8
  %tobool.not = icmp eq ptr %16, null
  br i1 %tobool.not, label %cond.end, label %cond.true

cond.true:                                        ; preds = %_ZN16veloxtpFlexLexer15yy_flush_bufferEP15yy_buffer_state.exit
  %yy_buffer_stack_top = getelementptr inbounds i8, ptr %this, i64 632
  %17 = load i64, ptr %yy_buffer_stack_top, align 8
  %arrayidx = getelementptr inbounds ptr, ptr %16, i64 %17
  %18 = load ptr, ptr %arrayidx, align 8
  br label %cond.end

cond.end:                                         ; preds = %_ZN16veloxtpFlexLexer15yy_flush_bufferEP15yy_buffer_state.exit, %cond.true
  %cond = phi ptr [ %18, %cond.true ], [ null, %_ZN16veloxtpFlexLexer15yy_flush_bufferEP15yy_buffer_state.exit ]
  %cmp.not = icmp eq ptr %cond, %b
  br i1 %cmp.not, label %if.end, label %if.then

if.then:                                          ; preds = %cond.end
  %yy_bs_lineno = getelementptr inbounds i8, ptr %b, i64 44
  store i32 1, ptr %yy_bs_lineno, align 4
  %yy_bs_column = getelementptr inbounds i8, ptr %b, i64 48
  store i32 0, ptr %yy_bs_column, align 8
  br label %if.end

if.end:                                           ; preds = %if.then, %cond.end
  %yy_is_interactive = getelementptr inbounds i8, ptr %b, i64 36
  store i32 0, ptr %yy_is_interactive, align 4
  store i32 %0, ptr %call, align 4
  ret void
}